; Function Attrs: mustprogress uwtable
define noundef zeroext i1 @_ZN2cv4gapi3wip15QueueSourceBase4pullERNS1_4DataE(ptr nocapture noundef nonnull readonly align 8 dereferenceable(40) %0, ptr noundef nonnull align 8 dereferenceable(160) %1) unnamed_addr #3 align 2 {
  %3 = getelementptr inbounds i8, ptr %0, i64 24
  %4 = load ptr, ptr %3, align 8
  %5 = getelementptr inbounds i8, ptr %4, i64 56
  tail call void @_ZN2cv4gapi3own24concurrent_bounded_queueINS_7GRunArgEE3popERS3_(ptr noundef nonnull align 8 dereferenceable(224) %5, ptr noundef nonnull align 8 dereferenceable(160) %1)
  %6 = load ptr, ptr %3, align 8
  %7 = getelementptr inbounds i8, ptr %6, i64 288
  %8 = load atomic i8, ptr %7 seq_cst, align 1
  %9 = trunc i8 %8 to i1
  %.0 = xor i1 %9, true
  ret i1 %.0
}